; Function Attrs: nounwind uwtable
define dso_local void @sentinelIsRunning() local_unnamed_addr #0 {
  br label %1

1:                                                ; preds = %0, %4
  %indvars.iv = phi i64 [ 0, %0 ], [ %indvars.iv.next, %4 ]
  %2 = getelementptr inbounds nuw [41 x i8], ptr @sentinel, i64 0, i64 %indvars.iv
  %3 = load i8, ptr %2, align 1, !tbaa !79
  %.not = icmp eq i8 %3, 0
  br i1 %.not, label %4, label %sentinelFlushConfig.exit

4:                                                ; preds = %1
  %indvars.iv.next = add nuw nsw i64 %indvars.iv, 1
  %exitcond.not = icmp eq i64 %indvars.iv.next, 40
  br i1 %exitcond.not, label %5, label %1, !llvm.loop !80

5:                                                ; preds = %4
  tail call void @getRandomHexChars(ptr noundef nonnull @sentinel, i64 noundef 40) #30
  %6 = load i32, ptr getelementptr inbounds nuw (i8, ptr @server, i64 52), align 4, !tbaa !82
  store i32 10, ptr getelementptr inbounds nuw (i8, ptr @server, i64 52), align 4, !tbaa !82
  %7 = load ptr, ptr getelementptr inbounds nuw (i8, ptr @server, i64 16), align 8, !tbaa !76
  %8 = tail call i32 @rewriteConfig(ptr noundef %7, i32 noundef 0) #30
  store i32 %6, ptr getelementptr inbounds nuw (i8, ptr @server, i64 52), align 4, !tbaa !82
  %9 = icmp eq i32 %8, -1
  %10 = load i32, ptr getelementptr inbounds nuw (i8, ptr @server, i64 6288), align 8, !tbaa !77
  br i1 %9, label %11, label %17

11:                                               ; preds = %5
  %12 = icmp sgt i32 %10, 3
  br i1 %12, label %sentinelFlushConfig.exit.thread, label %13

13:                                               ; preds = %11
  %14 = tail call ptr @__errno_location() #32
  %15 = load i32, ptr %14, align 4, !tbaa !78
  %16 = tail call ptr @strerror(i32 noundef %15) #30
  tail call void (i32, ptr, ...) @_serverLog(i32 noundef 3, ptr noundef nonnull @.str.144, ptr noundef %16) #30
  br label %sentinelFlushConfig.exit

17:                                               ; preds = %5
  %18 = icmp sgt i32 %10, 2
  br i1 %18, label %sentinelFlushConfig.exit.thread, label %19

19:                                               ; preds = %17
  tail call void (i32, ptr, ...) @_serverLog(i32 noundef 2, ptr noundef nonnull @.str.145) #30
  br label %sentinelFlushConfig.exit

sentinelFlushConfig.exit:                         ; preds = %1, %19, %13
  %.pr = load i32, ptr getelementptr inbounds nuw (i8, ptr @server, i64 6288), align 8, !tbaa !77
  %20 = icmp sgt i32 %.pr, 2
  br i1 %20, label %sentinelFlushConfig.exit.thread, label %21

21:                                               ; preds = %sentinelFlushConfig.exit
  tail call void (i32, ptr, ...) @_serverLog(i32 noundef 2, ptr noundef nonnull @.str.11, ptr noundef nonnull @sentinel) #30
  br label %sentinelFlushConfig.exit.thread

sentinelFlushConfig.exit.thread:                  ; preds = %11, %17, %sentinelFlushConfig.exit, %21
  %22 = load ptr, ptr getelementptr inbounds nuw (i8, ptr @sentinel, i64 56), align 8, !tbaa !65
  %23 = tail call ptr @dictGetIterator(ptr noundef %22) #30
  %24 = tail call ptr @dictNext(ptr noundef %23) #30
  %.not5.i = icmp eq ptr %24, null
  br i1 %.not5.i, label %sentinelGenerateInitialMonitorEvents.exit, label %.lr.ph.i

.lr.ph.i:                                         ; preds = %sentinelFlushConfig.exit.thread, %.lr.ph.i
  %25 = phi ptr [ %29, %.lr.ph.i ], [ %24, %sentinelFlushConfig.exit.thread ]
  %26 = tail call ptr @dictGetVal(ptr noundef nonnull %25) #30
  %27 = getelementptr inbounds nuw i8, ptr %26, i64 168
  %28 = load i32, ptr %27, align 8, !tbaa !83
  tail call void (i32, ptr, ptr, ptr, ...) @sentinelEvent(i32 noundef 3, ptr noundef nonnull @.str.18, ptr noundef %26, ptr noundef nonnull @.str.19, i32 noundef %28)
  %29 = tail call ptr @dictNext(ptr noundef %23) #30
  %.not.i = icmp eq ptr %29, null
  br i1 %.not.i, label %sentinelGenerateInitialMonitorEvents.exit, label %.lr.ph.i, !llvm.loop !84

sentinelGenerateInitialMonitorEvents.exit:        ; preds = %.lr.ph.i, %sentinelFlushConfig.exit.thread
  tail call void @dictReleaseIterator(ptr noundef %23) #30
  ret void
}